(dp1
S'{smallToken}'
p2
(lp3
S'cold'
p4
aS'cool'
p5
aS'dark'
p6
aS'easy'
p7
aS'fine'
p8
aS'lazy'
p9
aS'light'
p10
aS'low'
p11
aS'narrow'
p12
aS'near'
p13
aS'poor'
p14
aS'quick'
p15
aS'sad'
p16
aS'shallow'
p17
aS'short'
p18
aS'small'
p19
aS'thin'
p20
aS'tiny'
p21
aS'young'
p22
aS'careless'
p23
aS'terrible'
p24
aS'bad'
p25
aS'evil'
p26
aS'ill'
p27
aS'little'
p28
aS'late'
p29
aS'nigh'
p30
ag30
aS'fore'
p31
ag31
aS'in'
p32
ag32
asS'{leastToken}'
p33
(lp34
S'coldest'
p35
aS'coolest'
p36
aS'darkest'
p37
aS'easiest'
p38
aS'finest'
p39
aS'laziest'
p40
aS'lightest'
p41
aS'lowest'
p42
aS'narrowest'
p43
aS'nearest'
p44
aS'poorest'
p45
aS'quickest'
p46
aS'saddest'
p47
aS'shallowest'
p48
aS'shortest'
p49
aS'smallest'
p50
aS'thinnest'
p51
aS'tiniest'
p52
aS'youngest'
p53
aS'most careless'
p54
aS'most terrible'
p55
aS'worst'
p56
ag56
ag56
aS'least'
p57
aS'latest'
p58
aS'next'
p59
aS'nighest'
p60
aS'first'
p61
aS'formost'
p62
aS'inmost'
p63
aS'innermost'
p64
asS'{lessToken}'
p65
(lp66
S'colder'
p67
aS'cooler'
p68
aS'darker'
p69
aS'easier'
p70
aS'finer'
p71
aS'lazier'
p72
aS'lighter'
p73
aS'lower'
p74
aS'narrower'
p75
aS'nearer'
p76
aS'poorer'
p77
aS'quicker'
p78
aS'sadder'
p79
aS'shallower'
p80
aS'shorter'
p81
aS'smaller'
p82
aS'thinner'
p83
aS'tinier'
p84
aS'younger'
p85
aS'more careless'
p86
aS'more terrible'
p87
aS'worse'
p88
ag88
ag88
aS'less'
p89
aS'later'
p90
aS'nigher'
p91
ag91
aS'former'
p92
ag92
aS'inner'
p93
ag93
asS'{greaterToken}'
p94
(lp95
S'abler'
p96
aS'bigger'
p97
aS'blacker'
p98
aS'bolder'
p99
aS'braver'
p100
aS'brighter'
p101
aS'busier'
p102
aS'cleaner'
p103
aS'clearer'
p104
aS'cleverer'
p105
aS'dearer'
p106
aS'deeper'
p107
aS'dirtier'
p108
aS'drier'
p109
aS'fairer'
p110
aS'faster'
p111
aS'fatter'
p112
aS'funnier'
p113
aS'greater'
p114
aS'greener'
p115
aS'happier'
p116
aS'harder'
p117
aS'healthier'
p118
aS'heavier'
p119
aS'higher'
p120
aS'hotter'
p121
aS'kinder'
p122
aS'larger'
p123
aS'longer'
p124
aS'luckier'
p125
aS'madder'
p126
aS'merrier'
p127
aS'naughtier'
p128
aS'newest'
p129
aS'noisier'
p130
aS'older'
p131
aS'paler'
p132
aS'prettier'
p133
aS'prouder'
p134
aS'redder'
p135
aS'richer'
p136
aS'safer'
p137
aS'sharper'
p138
aS'slower'
p139
aS'smoother'
p140
aS'stronger'
p141
aS'sweeter'
p142
aS'taller'
p143
aS'thicker'
p144
aS'uglier'
p145
aS'warmer'
p146
aS'wealthier'
p147
aS'wetter'
p148
aS'whiter'
p149
aS'wider'
p150
aS'wilder'
p151
aS'wiser'
p152
aS'more ancient'
p153
aS'more beautiful'
p154
aS'more brilliant'
p155
aS'more careful'
p156
aS'more cheerful'
p157
aS'more comfortable'
p158
aS'more dangerous'
p159
aS'more delightful'
p160
aS'more difficult'
p161
aS'more enjoyable'
p162
aS'more foolish'
p163
aS'more forgetful'
p164
aS'more frightening'
p165
aS'more generous'
p166
aS'more handsome'
p167
aS'more helpful'
p168
aS'more ignorant'
p169
aS'more important'
p170
aS'more intelligent'
p171
aS'more interesting'
p172
aS'more pleasant'
p173
aS'more powerful'
p174
aS'more prosperous'
p175
aS'more sensible'
p176
aS'more thoughtful'
p177
aS'more unusual'
p178
aS'more useful'
p179
aS'more valuable'
p180
aS'more wonderful'
p181
aS'more zealous'
p182
aS'farther'
p183
aS'further'
p184
aS'better'
p185
ag185
aS'more'
p186
ag186
aS'latter'
p187
aS'elder'
p188
ag131
aS'outer'
p189
ag189
aS'upper'
p190
ag190
asS'{greatestToken}'
p191
(lp192
S'ablest'
p193
aS'biggest'
p194
aS'blackest'
p195
aS'boldest'
p196
aS'bravest'
p197
aS'brightest'
p198
aS'busiest'
p199
aS'cleanest'
p200
aS'clearest'
p201
aS'cleverest'
p202
aS'dearest'
p203
aS'deepest'
p204
aS'dirtiest'
p205
aS'driest'
p206
aS'fairest'
p207
aS'fastest'
p208
aS'fattest'
p209
aS'funniest'
p210
aS'greatest'
p211
aS'greenest'
p212
aS'happiest'
p213
aS'hardest'
p214
aS'healthiest'
p215
aS'heaviest'
p216
aS'highest'
p217
aS'hottest'
p218
aS'kindest'
p219
aS'largest'
p220
aS'longest'
p221
aS'luckiest'
p222
aS'maddest'
p223
aS'merriest'
p224
aS'naughtiest'
p225
aS'newest'
p226
aS'noisiest'
p227
aS'oldest'
p228
aS'paleest'
p229
aS'prettiest'
p230
aS'proudest'
p231
aS'reddest'
p232
aS'richest'
p233
aS'safest'
p234
aS'sharpest'
p235
aS'slowest'
p236
aS'smoothest'
p237
aS'strongest'
p238
aS'sweetest'
p239
aS'tallest'
p240
aS'thickest'
p241
aS'ugliest'
p242
aS'warmest'
p243
aS'wealthiest'
p244
aS'wettest'
p245
aS'whitest'
p246
aS'widest'
p247
aS'wildest'
p248
aS'wisest'
p249
aS'most ancient'
p250
aS'most beautiful'
p251
aS'most brilliant'
p252
aS'most careful'
p253
aS'most cheerful'
p254
aS'most comfortable'
p255
aS'most dangerous'
p256
aS'most delightful'
p257
aS'most difficult'
p258
aS'most enjoyable'
p259
aS'most foolish'
p260
aS'most forgetful'
p261
aS'most frightening'
p262
aS'most generous'
p263
aS'most handsome'
p264
aS'most helpful'
p265
aS'most ignorant'
p266
aS'most important'
p267
aS'most intelligent'
p268
aS'most interesting'
p269
aS'most pleasant'
p270
aS'most powerful'
p271
aS'most prosperous'
p272
aS'most sensible'
p273
aS'most thoughtful'
p274
aS'most unusual'
p275
aS'most useful'
p276
aS'most valuable'
p277
aS'most wonderful'
p278
aS'most zealous'
p279
aS'farthest'
p280
aS'furthest'
p281
aS'best'
p282
ag282
aS'most'
p283
ag283
aS'last'
p284
aS'eldest'
p285
ag228
aS'utmost'
p286
aS'outermost'
p287
aS'upmost'
p288
aS'uppermost'
p289
asS'{greatToken}'
p290
(lp291
S'able'
p292
aS'big'
p293
aS'black'
p294
aS'bold'
p295
aS'brave'
p296
aS'bright'
p297
aS'busy'
p298
aS'clean'
p299
aS'clear'
p300
aS'clever'
p301
aS'dear'
p302
aS'deep'
p303
aS'dirty'
p304
aS'dry'
p305
aS'fair'
p306
aS'fast'
p307
aS'fat'
p308
aS'funny'
p309
aS'great'
p310
aS'green'
p311
aS'happy'
p312
aS'hard'
p313
aS'healthy'
p314
aS'heavy'
p315
aS'high'
p316
aS'hot'
p317
aS'kind'
p318
aS'large'
p319
aS'long'
p320
aS'lucky'
p321
aS'mad'
p322
aS'merry'
p323
aS'naughty'
p324
aS'new'
p325
aS'noisy'
p326
aS'old'
p327
aS'pale'
p328
aS'pretty'
p329
aS'proud'
p330
aS'red'
p331
aS'rich'
p332
aS'safe'
p333
aS'sharp'
p334
aS'slow'
p335
aS'smooth'
p336
aS'strong'
p337
aS'sweet'
p338
aS'tall'
p339
aS'thick'
p340
aS'ugly'
p341
aS'warm'
p342
aS'wealthy'
p343
aS'wet'
p344
aS'white'
p345
aS'wide'
p346
aS'wild'
p347
aS'wise'
p348
aS'ancient'
p349
aS'beautiful'
p350
aS'brilliant'
p351
aS'careful'
p352
aS'cheerful'
p353
aS'comfortable'
p354
aS'dangerous'
p355
aS'delightful'
p356
aS'difficult'
p357
aS'enjoyable'
p358
aS'foolish'
p359
aS'forgetful'
p360
aS'frightening'
p361
aS'generous'
p362
aS'handsome'
p363
aS'helpful'
p364
aS'ignorant'
p365
aS'important'
p366
aS'intelligent'
p367
aS'interesting'
p368
aS'pleasant'
p369
aS'powerful'
p370
aS'prosperous'
p371
aS'sensible'
p372
aS'thoughtful'
p373
aS'unusual'
p374
aS'useful'
p375
aS'valuable'
p376
aS'wonderful'
p377
aS'zealous'
p378
aS'far'
p379
ag379
aS'good'
p380
aS'well'
p381
aS'many'
p382
aS'much'
p383
ag29
ag327
ag327
aS'out'
p384
ag384
aS'up'
p385
ag385
as.